target datalayout = "e-m:e-p270:32:32-p271:32:32-p272:64:64-i64:64-i128:128-f80:128-n8:16:32:64-S128"
target triple = "x86_64-pc-linux-gnu"

%struct.H5E_stack_t = type { i64, [32 x %struct.H5E_entry_t], %struct.H5E_auto_op_t, ptr, i32 }
%struct.H5E_entry_t = type { i8, %struct.H5E_error2_t }
%struct.H5E_error2_t = type { i64, i64, i64, i32, ptr, ptr, ptr }
%struct.H5E_auto_op_t = type { i32, i8, ptr, ptr, ptr, ptr }
%struct.H5CX_node_t = type { %struct.H5CX_t, ptr }
%struct.H5CX_t = type { i64, ptr, i64, ptr, i64, ptr, i64, ptr, i64, ptr, i64, ptr, i64, i32, i64, i8, ptr, i8, ptr, i8, i32, i8, [3 x double], i8, i64, i8, i32, i8, %struct.H5Z_cb_t, i8, ptr, i8, %struct.H5T_vlen_alloc_info_t, i8, %struct.H5T_conv_cb_t, i8, i32, i8, i8, i8, i32, i8, i8, i32, i8, i8, i32, i8, i32, i8, i64, i8, i8, i8, i8, i8, ptr, i8, ptr, i8, i32, i8, i32, i8, %struct.H5VL_connector_prop_t, i8, ptr, i8 }
%struct.H5Z_cb_t = type { ptr, ptr }
%struct.H5T_vlen_alloc_info_t = type { ptr, ptr, ptr, ptr }
%struct.H5T_conv_cb_t = type { ptr, ptr }
%struct.H5VL_connector_prop_t = type { ptr, ptr }

@H5E_init_g = global i8 0, align 1
@H5_libinit_g = external global i8, align 1
@H5_libterm_g = external global i8, align 1
@.str = private unnamed_addr constant [97 x i8] c"generated/home/dtcxzyw/WorkSpace/Projects/compilers/llvm-opt-benchmark/bench/hdf5/hdf5/src/H5E.c\00", align 1
@H5E_FUNC_g = external global i64, align 8
@H5E_CANTINIT_g = external global i64, align 8
@.str.1 = private unnamed_addr constant [30 x i8] c"library initialization failed\00", align 1
@.str.2 = private unnamed_addr constant [32 x i8] c"interface initialization failed\00", align 1
@H5E_CANTSET_g = external global i64, align 8
@.str.3 = private unnamed_addr constant [22 x i8] c"can't set API context\00", align 1
@H5E_ARGS_g = external global i64, align 8
@H5E_ERROR_g = external global i64, align 8
@H5E_BADTYPE_g = external global i64, align 8
@H5E_CANTGET_g = external global i64, align 8
@H5E_stack_g = external global [1 x %struct.H5E_stack_t], align 16
@.str.24 = private unnamed_addr constant [30 x i8] c"can't get current error stack\00", align 1
@.str.25 = private unnamed_addr constant [22 x i8] c"not an error stack ID\00", align 1
@__func__.H5Eresume_stack = private unnamed_addr constant [16 x i8] c"H5Eresume_stack\00", align 1
@H5E_BADRANGE_g = external global i64, align 8
@.str.46 = private unnamed_addr constant [26 x i8] c"resuming more than paused\00", align 1

; Function Attrs: nounwind uwtable
define i32 @H5Eresume_stack(i64 noundef %0) #0 {
  %2 = alloca i64, align 8
  %3 = alloca ptr, align 8
  %4 = alloca i32, align 4
  %5 = alloca %struct.H5CX_node_t, align 8
  %6 = alloca i8, align 1
  %7 = alloca i8, align 1
  store i64 %0, ptr %2, align 8, !tbaa !8
  call void @llvm.lifetime.start.p0(i64 8, ptr %3) #7
  call void @llvm.lifetime.start.p0(i64 4, ptr %4) #7
  store i32 0, ptr %4, align 4, !tbaa !16
  call void @llvm.lifetime.start.p0(i64 480, ptr %5) #7
  call void @llvm.memset.p0.i64(ptr align 8 %5, i8 0, i64 480, i1 false)
  call void @llvm.lifetime.start.p0(i64 1, ptr %6) #7
  store i8 0, ptr %6, align 1, !tbaa !10
  call void @llvm.lifetime.start.p0(i64 1, ptr %7) #7
  store i8 0, ptr %7, align 1, !tbaa !10
  br label %8

8:                                                ; preds = %1
  %9 = load i8, ptr @H5_libinit_g, align 1, !tbaa !10, !range !12, !noundef !13
  %10 = trunc i8 %9 to i1
  br i1 %10, label %15, label %11

11:                                               ; preds = %8
  %12 = load i8, ptr @H5_libterm_g, align 1, !tbaa !10, !range !12, !noundef !13
  %13 = trunc i8 %12 to i1
  %14 = xor i1 %13, true
  br label %15

15:                                               ; preds = %11, %8
  %16 = phi i1 [ false, %8 ], [ %14, %11 ]
  %17 = xor i1 %16, true
  %18 = xor i1 %17, true
  %19 = zext i1 %18 to i32
  %20 = sext i32 %19 to i64
  %21 = call i64 @llvm.expect.i64(i64 %20, i64 0)
  %22 = icmp ne i64 %21, 0
  br i1 %22, label %23, label %52

23:                                               ; preds = %15
  %24 = call i32 @H5_init_library()
  %25 = icmp slt i32 %24, 0
  %26 = xor i1 %25, true
  %27 = xor i1 %26, true
  %28 = zext i1 %27 to i32
  %29 = sext i32 %28 to i64
  %30 = call i64 @llvm.expect.i64(i64 %29, i64 0)
  %31 = icmp ne i64 %30, 0
  br i1 %31, label %32, label %51

32:                                               ; preds = %23
  br label %33

33:                                               ; preds = %32
  br label %34

34:                                               ; preds = %33
  br label %35

35:                                               ; preds = %34
  %36 = load i64, ptr @H5E_FUNC_g, align 8, !tbaa !8
  %37 = load i64, ptr @H5E_CANTINIT_g, align 8, !tbaa !8
  %38 = call i32 (ptr, ptr, i32, i64, i64, ptr, ...) @H5E_printf_stack(ptr noundef @.str, ptr noundef @__func__.H5Eresume_stack, i32 noundef 988, i64 noundef %36, i64 noundef %37, ptr noundef @.str.1)
  br label %39

39:                                               ; preds = %35
  br label %40

40:                                               ; preds = %39
  store i8 1, ptr %7, align 1, !tbaa !10
  %41 = load i8, ptr %7, align 1, !tbaa !10, !range !12, !noundef !13
  %42 = trunc i8 %41 to i1
  %43 = zext i1 %42 to i8
  store i8 %43, ptr %7, align 1, !tbaa !10
  br label %44

44:                                               ; preds = %40
  br label %45

45:                                               ; preds = %44
  br label %46

46:                                               ; preds = %45
  store i32 -1, ptr %4, align 4, !tbaa !16
  br label %202

47:                                               ; No predecessors!
  br label %48

48:                                               ; preds = %47
  br label %49

49:                                               ; preds = %48
  br label %50

50:                                               ; preds = %49
  br label %51

51:                                               ; preds = %50, %23
  br label %52

52:                                               ; preds = %51, %15
  %53 = load i8, ptr @H5E_init_g, align 1, !tbaa !10, !range !12, !noundef !13
  %54 = trunc i8 %53 to i1
  br i1 %54, label %59, label %55

55:                                               ; preds = %52
  %56 = load i8, ptr @H5_libterm_g, align 1, !tbaa !10, !range !12, !noundef !13
  %57 = trunc i8 %56 to i1
  %58 = xor i1 %57, true
  br label %59

59:                                               ; preds = %55, %52
  %60 = phi i1 [ false, %52 ], [ %58, %55 ]
  %61 = xor i1 %60, true
  %62 = xor i1 %61, true
  %63 = zext i1 %62 to i32
  %64 = sext i32 %63 to i64
  %65 = call i64 @llvm.expect.i64(i64 %64, i64 0)
  %66 = icmp ne i64 %65, 0
  br i1 %66, label %67, label %90

67:                                               ; preds = %59
  store i8 1, ptr @H5E_init_g, align 1, !tbaa !10
  %68 = call i32 @H5E__init_package()
  %69 = icmp slt i32 %68, 0
  br i1 %69, label %70, label %89

70:                                               ; preds = %67
  store i8 0, ptr @H5E_init_g, align 1, !tbaa !10
  br label %71

71:                                               ; preds = %70
  br label %72

72:                                               ; preds = %71
  br label %73

73:                                               ; preds = %72
  %74 = load i64, ptr @H5E_FUNC_g, align 8, !tbaa !8
  %75 = load i64, ptr @H5E_CANTINIT_g, align 8, !tbaa !8
  %76 = call i32 (ptr, ptr, i32, i64, i64, ptr, ...) @H5E_printf_stack(ptr noundef @.str, ptr noundef @__func__.H5Eresume_stack, i32 noundef 988, i64 noundef %74, i64 noundef %75, ptr noundef @.str.2)
  br label %77

77:                                               ; preds = %73
  br label %78

78:                                               ; preds = %77
  store i8 1, ptr %7, align 1, !tbaa !10
  %79 = load i8, ptr %7, align 1, !tbaa !10, !range !12, !noundef !13
  %80 = trunc i8 %79 to i1
  %81 = zext i1 %80 to i8
  store i8 %81, ptr %7, align 1, !tbaa !10
  br label %82

82:                                               ; preds = %78
  br label %83

83:                                               ; preds = %82
  br label %84

84:                                               ; preds = %83
  store i32 -1, ptr %4, align 4, !tbaa !16
  br label %202

85:                                               ; No predecessors!
  br label %86

86:                                               ; preds = %85
  br label %87

87:                                               ; preds = %86
  br label %88

88:                                               ; preds = %87
  br label %89

89:                                               ; preds = %88, %67
  br label %90

90:                                               ; preds = %89, %59
  br label %91

91:                                               ; preds = %90
  br label %92

92:                                               ; preds = %91
  br label %93

93:                                               ; preds = %92
  %94 = call i32 @H5CX_push(ptr noundef %5)
  %95 = icmp slt i32 %94, 0
  %96 = xor i1 %95, true
  %97 = xor i1 %96, true
  %98 = zext i1 %97 to i32
  %99 = sext i32 %98 to i64
  %100 = call i64 @llvm.expect.i64(i64 %99, i64 0)
  %101 = icmp ne i64 %100, 0
  br i1 %101, label %102, label %121

102:                                              ; preds = %93
  br label %103

103:                                              ; preds = %102
  br label %104

104:                                              ; preds = %103
  br label %105

105:                                              ; preds = %104
  %106 = load i64, ptr @H5E_FUNC_g, align 8, !tbaa !8
  %107 = load i64, ptr @H5E_CANTSET_g, align 8, !tbaa !8
  %108 = call i32 (ptr, ptr, i32, i64, i64, ptr, ...) @H5E_printf_stack(ptr noundef @.str, ptr noundef @__func__.H5Eresume_stack, i32 noundef 988, i64 noundef %106, i64 noundef %107, ptr noundef @.str.3)
  br label %109

109:                                              ; preds = %105
  br label %110

110:                                              ; preds = %109
  store i8 1, ptr %7, align 1, !tbaa !10
  %111 = load i8, ptr %7, align 1, !tbaa !10, !range !12, !noundef !13
  %112 = trunc i8 %111 to i1
  %113 = zext i1 %112 to i8
  store i8 %113, ptr %7, align 1, !tbaa !10
  br label %114

114:                                              ; preds = %110
  br label %115

115:                                              ; preds = %114
  br label %116

116:                                              ; preds = %115
  store i32 -1, ptr %4, align 4, !tbaa !16
  br label %202

117:                                              ; No predecessors!
  br label %118

118:                                              ; preds = %117
  br label %119

119:                                              ; preds = %118
  br label %120

120:                                              ; preds = %119
  br label %122

121:                                              ; preds = %93
  store i8 1, ptr %6, align 1, !tbaa !10
  br label %122

122:                                              ; preds = %121, %120
  br label %123

123:                                              ; preds = %122
  br label %124

124:                                              ; preds = %123
  %125 = call i32 @H5E_clear_stack()
  %126 = load i64, ptr %2, align 8, !tbaa !8
  %127 = icmp eq i64 %126, 0
  br i1 %127, label %128, label %149

128:                                              ; preds = %124
  store ptr @H5E_stack_g, ptr %3, align 8, !tbaa !21
  br i1 false, label %129, label %148

129:                                              ; preds = %128
  br label %130

130:                                              ; preds = %129
  br label %131

131:                                              ; preds = %130
  br label %132

132:                                              ; preds = %131
  %133 = load i64, ptr @H5E_ERROR_g, align 8, !tbaa !8
  %134 = load i64, ptr @H5E_CANTGET_g, align 8, !tbaa !8
  %135 = call i32 (ptr, ptr, i32, i64, i64, ptr, ...) @H5E_printf_stack(ptr noundef @.str, ptr noundef @__func__.H5Eresume_stack, i32 noundef 993, i64 noundef %133, i64 noundef %134, ptr noundef @.str.24)
  br label %136

136:                                              ; preds = %132
  br label %137

137:                                              ; preds = %136
  store i8 1, ptr %7, align 1, !tbaa !10
  %138 = load i8, ptr %7, align 1, !tbaa !10, !range !12, !noundef !13
  %139 = trunc i8 %138 to i1
  %140 = zext i1 %139 to i8
  store i8 %140, ptr %7, align 1, !tbaa !10
  br label %141

141:                                              ; preds = %137
  br label %142

142:                                              ; preds = %141
  br label %143

143:                                              ; preds = %142
  store i32 -1, ptr %4, align 4, !tbaa !16
  br label %202

144:                                              ; No predecessors!
  br label %145

145:                                              ; preds = %144
  br label %146

146:                                              ; preds = %145
  br label %147

147:                                              ; preds = %146
  br label %148

148:                                              ; preds = %147, %128
  br label %173

149:                                              ; preds = %124
  %150 = load i64, ptr %2, align 8, !tbaa !8
  %151 = call ptr @H5I_object_verify(i64 noundef %150, i32 noundef 14)
  store ptr %151, ptr %3, align 8, !tbaa !21
  %152 = icmp eq ptr null, %151
  br i1 %152, label %153, label %172

153:                                              ; preds = %149
  br label %154

154:                                              ; preds = %153
  br label %155

155:                                              ; preds = %154
  br label %156

156:                                              ; preds = %155
  %157 = load i64, ptr @H5E_ARGS_g, align 8, !tbaa !8
  %158 = load i64, ptr @H5E_BADTYPE_g, align 8, !tbaa !8
  %159 = call i32 (ptr, ptr, i32, i64, i64, ptr, ...) @H5E_printf_stack(ptr noundef @.str, ptr noundef @__func__.H5Eresume_stack, i32 noundef 998, i64 noundef %157, i64 noundef %158, ptr noundef @.str.25)
  br label %160

160:                                              ; preds = %156
  br label %161

161:                                              ; preds = %160
  store i8 1, ptr %7, align 1, !tbaa !10
  %162 = load i8, ptr %7, align 1, !tbaa !10, !range !12, !noundef !13
  %163 = trunc i8 %162 to i1
  %164 = zext i1 %163 to i8
  store i8 %164, ptr %7, align 1, !tbaa !10
  br label %165

165:                                              ; preds = %161
  br label %166

166:                                              ; preds = %165
  br label %167

167:                                              ; preds = %166
  store i32 -1, ptr %4, align 4, !tbaa !16
  br label %202

168:                                              ; No predecessors!
  br label %169

169:                                              ; preds = %168
  br label %170

170:                                              ; preds = %169
  br label %171

171:                                              ; preds = %170
  br label %172

172:                                              ; preds = %171, %149
  br label %173

173:                                              ; preds = %172, %148
  %174 = load ptr, ptr %3, align 8, !tbaa !21
  %175 = getelementptr inbounds nuw %struct.H5E_stack_t, ptr %174, i32 0, i32 4
  %176 = load i32, ptr %175, align 8, !tbaa !26
  %177 = icmp eq i32 0, %176
  br i1 %177, label %178, label %197

178:                                              ; preds = %173
  br label %179

179:                                              ; preds = %178
  br label %180

180:                                              ; preds = %179
  br label %181

181:                                              ; preds = %180
  %182 = load i64, ptr @H5E_ERROR_g, align 8, !tbaa !8
  %183 = load i64, ptr @H5E_BADRANGE_g, align 8, !tbaa !8
  %184 = call i32 (ptr, ptr, i32, i64, i64, ptr, ...) @H5E_printf_stack(ptr noundef @.str, ptr noundef @__func__.H5Eresume_stack, i32 noundef 1002, i64 noundef %182, i64 noundef %183, ptr noundef @.str.46)
  br label %185

185:                                              ; preds = %181
  br label %186

186:                                              ; preds = %185
  store i8 1, ptr %7, align 1, !tbaa !10
  %187 = load i8, ptr %7, align 1, !tbaa !10, !range !12, !noundef !13
  %188 = trunc i8 %187 to i1
  %189 = zext i1 %188 to i8
  store i8 %189, ptr %7, align 1, !tbaa !10
  br label %190

190:                                              ; preds = %186
  br label %191

191:                                              ; preds = %190
  br label %192

192:                                              ; preds = %191
  store i32 -1, ptr %4, align 4, !tbaa !16
  br label %202

193:                                              ; No predecessors!
  br label %194

194:                                              ; preds = %193
  br label %195

195:                                              ; preds = %194
  br label %196

196:                                              ; preds = %195
  br label %197

197:                                              ; preds = %196, %173
  %198 = load ptr, ptr %3, align 8, !tbaa !21
  %199 = getelementptr inbounds nuw %struct.H5E_stack_t, ptr %198, i32 0, i32 4
  %200 = load i32, ptr %199, align 8, !tbaa !26
  %201 = add i32 %200, -1
  store i32 %201, ptr %199, align 8, !tbaa !26
  br label %202

202:                                              ; preds = %197, %192, %167, %143, %116, %84, %46
  %203 = load i8, ptr %6, align 1, !tbaa !10, !range !12, !noundef !13
  %204 = trunc i8 %203 to i1
  %205 = xor i1 %204, true
  %206 = xor i1 %205, true
  %207 = zext i1 %206 to i32
  %208 = sext i32 %207 to i64
  %209 = call i64 @llvm.expect.i64(i64 %208, i64 1)
  %210 = icmp ne i64 %209, 0
  br i1 %210, label %211, label %213

211:                                              ; preds = %202
  %212 = call i32 @H5CX_pop(i1 noundef zeroext true)
  store i8 0, ptr %6, align 1, !tbaa !10
  br label %213

213:                                              ; preds = %211, %202
  %214 = load i8, ptr %7, align 1, !tbaa !10, !range !12, !noundef !13
  %215 = trunc i8 %214 to i1
  %216 = xor i1 %215, true
  %217 = xor i1 %216, true
  %218 = zext i1 %217 to i32
  %219 = sext i32 %218 to i64
  %220 = call i64 @llvm.expect.i64(i64 %219, i64 0)
  %221 = icmp ne i64 %220, 0
  br i1 %221, label %222, label %224

222:                                              ; preds = %213
  %223 = call i32 @H5E_dump_api_stack()
  br label %224

224:                                              ; preds = %222, %213
  %225 = load i32, ptr %4, align 4, !tbaa !16
  call void @llvm.lifetime.end.p0(i64 1, ptr %7) #7
  call void @llvm.lifetime.end.p0(i64 1, ptr %6) #7
  call void @llvm.lifetime.end.p0(i64 480, ptr %5) #7
  call void @llvm.lifetime.end.p0(i64 4, ptr %4) #7
  call void @llvm.lifetime.end.p0(i64 8, ptr %3) #7
  ret i32 %225
}